target datalayout = "e-m:e-p270:32:32-p271:32:32-p272:64:64-i64:64-i128:128-f80:128-n8:16:32:64-S128"
target triple = "x86_64-pc-linux-gnu"

%struct.inline_cte_walker_context = type { ptr, i32, ptr }
%struct.Node = type { i32 }
%struct.RangeTblEntry = type { i32, ptr, ptr, i32, i32, i8, i8, i32, i32, ptr, ptr, i8, i32, i32, ptr, ptr, ptr, ptr, ptr, i8, ptr, ptr, ptr, i32, i8, ptr, ptr, ptr, ptr, double, ptr, i8, i8, ptr }

; Function Attrs: nounwind uwtable
define internal zeroext i1 @inline_cte_walker(ptr noundef %0, ptr noundef %1) #0 {
  %3 = alloca i1, align 1
  %4 = alloca ptr, align 8
  %5 = alloca ptr, align 8
  %6 = alloca ptr, align 8
  %7 = alloca ptr, align 8
  %8 = alloca ptr, align 8
  store ptr %0, ptr %4, align 8
  store ptr %1, ptr %5, align 8
  %9 = load ptr, ptr %4, align 8
  %10 = icmp eq ptr %9, null
  br i1 %10, label %11, label %12

11:                                               ; preds = %2
  store i1 false, ptr %3, align 1
  br label %98

12:                                               ; preds = %2
  %13 = load ptr, ptr %4, align 8
  %14 = getelementptr inbounds nuw %struct.Node, ptr %13, i32 0, i32 0
  %15 = load i32, ptr %14, align 4
  %16 = icmp eq i32 %15, 67
  br i1 %16, label %17, label %30

17:                                               ; preds = %12
  call void @llvm.lifetime.start.p0(i64 8, ptr %6) #8
  %18 = load ptr, ptr %4, align 8
  store ptr %18, ptr %6, align 8
  %19 = load ptr, ptr %5, align 8
  %20 = getelementptr inbounds nuw %struct.inline_cte_walker_context, ptr %19, i32 0, i32 1
  %21 = load i32, ptr %20, align 8
  %22 = add i32 %21, 1
  store i32 %22, ptr %20, align 8
  %23 = load ptr, ptr %6, align 8
  %24 = load ptr, ptr %5, align 8
  %25 = call zeroext i1 @query_tree_walker_impl(ptr noundef %23, ptr noundef @inline_cte_walker, ptr noundef %24, i32 noundef 32)
  %26 = load ptr, ptr %5, align 8
  %27 = getelementptr inbounds nuw %struct.inline_cte_walker_context, ptr %26, i32 0, i32 1
  %28 = load i32, ptr %27, align 8
  %29 = add i32 %28, -1
  store i32 %29, ptr %27, align 8
  store i1 false, ptr %3, align 1
  call void @llvm.lifetime.end.p0(i64 8, ptr %6) #8
  br label %98

30:                                               ; preds = %12
  %31 = load ptr, ptr %4, align 8
  %32 = getelementptr inbounds nuw %struct.Node, ptr %31, i32 0, i32 0
  %33 = load i32, ptr %32, align 4
  %34 = icmp eq i32 %33, 101
  br i1 %34, label %35, label %93

35:                                               ; preds = %30
  call void @llvm.lifetime.start.p0(i64 8, ptr %7) #8
  %36 = load ptr, ptr %4, align 8
  store ptr %36, ptr %7, align 8
  %37 = load ptr, ptr %7, align 8
  %38 = getelementptr inbounds nuw %struct.RangeTblEntry, ptr %37, i32 0, i32 3
  %39 = load i32, ptr %38, align 8
  %40 = icmp eq i32 %39, 6
  br i1 %40, label %41, label %92

41:                                               ; preds = %35
  %42 = load ptr, ptr %7, align 8
  %43 = getelementptr inbounds nuw %struct.RangeTblEntry, ptr %42, i32 0, i32 22
  %44 = load ptr, ptr %43, align 8
  %45 = load ptr, ptr %5, align 8
  %46 = getelementptr inbounds nuw %struct.inline_cte_walker_context, ptr %45, i32 0, i32 0
  %47 = load ptr, ptr %46, align 8
  %48 = call i32 @strcmp(ptr noundef %44, ptr noundef %47) #10
  %49 = icmp eq i32 %48, 0
  br i1 %49, label %50, label %92

50:                                               ; preds = %41
  %51 = load ptr, ptr %7, align 8
  %52 = getelementptr inbounds nuw %struct.RangeTblEntry, ptr %51, i32 0, i32 23
  %53 = load i32, ptr %52, align 8
  %54 = load ptr, ptr %5, align 8
  %55 = getelementptr inbounds nuw %struct.inline_cte_walker_context, ptr %54, i32 0, i32 1
  %56 = load i32, ptr %55, align 8
  %57 = icmp eq i32 %53, %56
  br i1 %57, label %58, label %92

58:                                               ; preds = %50
  call void @llvm.lifetime.start.p0(i64 8, ptr %8) #8
  %59 = load ptr, ptr %5, align 8
  %60 = getelementptr inbounds nuw %struct.inline_cte_walker_context, ptr %59, i32 0, i32 2
  %61 = load ptr, ptr %60, align 8
  %62 = call ptr @copyObjectImpl(ptr noundef %61)
  store ptr %62, ptr %8, align 8
  %63 = load ptr, ptr %5, align 8
  %64 = getelementptr inbounds nuw %struct.inline_cte_walker_context, ptr %63, i32 0, i32 1
  %65 = load i32, ptr %64, align 8
  %66 = icmp sgt i32 %65, 0
  br i1 %66, label %67, label %72

67:                                               ; preds = %58
  %68 = load ptr, ptr %8, align 8
  %69 = load ptr, ptr %5, align 8
  %70 = getelementptr inbounds nuw %struct.inline_cte_walker_context, ptr %69, i32 0, i32 1
  %71 = load i32, ptr %70, align 8
  call void @IncrementVarSublevelsUp(ptr noundef %68, i32 noundef %71, i32 noundef 1)
  br label %72

72:                                               ; preds = %67, %58
  %73 = load ptr, ptr %7, align 8
  %74 = getelementptr inbounds nuw %struct.RangeTblEntry, ptr %73, i32 0, i32 3
  store i32 1, ptr %74, align 8
  %75 = load ptr, ptr %8, align 8
  %76 = load ptr, ptr %7, align 8
  %77 = getelementptr inbounds nuw %struct.RangeTblEntry, ptr %76, i32 0, i32 10
  store ptr %75, ptr %77, align 8
  %78 = load ptr, ptr %7, align 8
  %79 = getelementptr inbounds nuw %struct.RangeTblEntry, ptr %78, i32 0, i32 11
  store i8 0, ptr %79, align 8
  %80 = load ptr, ptr %7, align 8
  %81 = getelementptr inbounds nuw %struct.RangeTblEntry, ptr %80, i32 0, i32 22
  store ptr null, ptr %81, align 8
  %82 = load ptr, ptr %7, align 8
  %83 = getelementptr inbounds nuw %struct.RangeTblEntry, ptr %82, i32 0, i32 23
  store i32 0, ptr %83, align 8
  %84 = load ptr, ptr %7, align 8
  %85 = getelementptr inbounds nuw %struct.RangeTblEntry, ptr %84, i32 0, i32 24
  store i8 0, ptr %85, align 4
  %86 = load ptr, ptr %7, align 8
  %87 = getelementptr inbounds nuw %struct.RangeTblEntry, ptr %86, i32 0, i32 25
  store ptr null, ptr %87, align 8
  %88 = load ptr, ptr %7, align 8
  %89 = getelementptr inbounds nuw %struct.RangeTblEntry, ptr %88, i32 0, i32 26
  store ptr null, ptr %89, align 8
  %90 = load ptr, ptr %7, align 8
  %91 = getelementptr inbounds nuw %struct.RangeTblEntry, ptr %90, i32 0, i32 27
  store ptr null, ptr %91, align 8
  call void @llvm.lifetime.end.p0(i64 8, ptr %8) #8
  br label %92

92:                                               ; preds = %72, %50, %41, %35
  store i1 false, ptr %3, align 1
  call void @llvm.lifetime.end.p0(i64 8, ptr %7) #8
  br label %98

93:                                               ; preds = %30
  br label %94

94:                                               ; preds = %93
  %95 = load ptr, ptr %4, align 8
  %96 = load ptr, ptr %5, align 8
  %97 = call zeroext i1 @expression_tree_walker_impl(ptr noundef %95, ptr noundef @inline_cte_walker, ptr noundef %96)
  store i1 %97, ptr %3, align 1
  br label %98

98:                                               ; preds = %94, %92, %17, %11
  %99 = load i1, ptr %3, align 1
  ret i1 %99
}