; Function Attrs: nounwind uwtable
define internal zeroext i1 @inline_cte_walker(ptr noundef %0, ptr noundef %1) #0 {
  %3 = icmp eq ptr %0, null
  br i1 %3, label %43, label %4

4:                                                ; preds = %2
  %5 = load i32, ptr %0, align 4
  switch i32 %5, label %41 [
    i32 67, label %6
    i32 101, label %13
  ]

6:                                                ; preds = %4
  %7 = getelementptr inbounds nuw i8, ptr %1, i64 8
  %8 = load i32, ptr %7, align 8
  %9 = add i32 %8, 1
  store i32 %9, ptr %7, align 8
  %10 = tail call zeroext i1 @query_tree_walker_impl(ptr noundef nonnull %0, ptr noundef nonnull @inline_cte_walker, ptr noundef %1, i32 noundef 32) #10
  %11 = load i32, ptr %7, align 8
  %12 = add i32 %11, -1
  store i32 %12, ptr %7, align 8
  br label %43

13:                                               ; preds = %4
  %14 = getelementptr inbounds nuw i8, ptr %0, i64 24
  %15 = load i32, ptr %14, align 8
  %16 = icmp eq i32 %15, 6
  br i1 %16, label %17, label %43

17:                                               ; preds = %13
  %18 = getelementptr inbounds nuw i8, ptr %0, i64 144
  %19 = load ptr, ptr %18, align 8
  %20 = load ptr, ptr %1, align 8
  %21 = tail call i32 @strcmp(ptr noundef nonnull dereferenceable(1) %19, ptr noundef nonnull dereferenceable(1) %20) #12
  %22 = icmp eq i32 %21, 0
  br i1 %22, label %23, label %43

23:                                               ; preds = %17
  %24 = getelementptr inbounds nuw i8, ptr %0, i64 152
  %25 = load i32, ptr %24, align 8
  %26 = getelementptr inbounds nuw i8, ptr %1, i64 8
  %27 = load i32, ptr %26, align 8
  %28 = icmp eq i32 %25, %27
  br i1 %28, label %29, label %43

29:                                               ; preds = %23
  %30 = getelementptr inbounds nuw i8, ptr %1, i64 16
  %31 = load ptr, ptr %30, align 8
  %32 = tail call ptr @copyObjectImpl(ptr noundef %31) #10
  %33 = load i32, ptr %26, align 8
  %34 = icmp sgt i32 %33, 0
  br i1 %34, label %35, label %36

35:                                               ; preds = %29
  tail call void @IncrementVarSublevelsUp(ptr noundef %32, i32 noundef %33, i32 noundef 1) #10
  br label %36

36:                                               ; preds = %35, %29
  store i32 1, ptr %14, align 8
  %37 = getelementptr inbounds nuw i8, ptr %0, i64 56
  store ptr %32, ptr %37, align 8
  %38 = getelementptr inbounds nuw i8, ptr %0, i64 64
  store i8 0, ptr %38, align 8
  store ptr null, ptr %18, align 8
  store i32 0, ptr %24, align 8
  %39 = getelementptr inbounds nuw i8, ptr %0, i64 156
  store i8 0, ptr %39, align 4
  %40 = getelementptr inbounds nuw i8, ptr %0, i64 160
  tail call void @llvm.memset.p0.i64(ptr noundef nonnull align 8 dereferenceable(24) %40, i8 0, i64 24, i1 false)
  br label %43

41:                                               ; preds = %4
  %42 = tail call zeroext i1 @expression_tree_walker_impl(ptr noundef nonnull %0, ptr noundef nonnull @inline_cte_walker, ptr noundef %1) #10
  br label %43

43:                                               ; preds = %13, %17, %23, %36, %2, %41, %6
  %.0 = phi i1 [ false, %6 ], [ %42, %41 ], [ false, %2 ], [ false, %36 ], [ false, %23 ], [ false, %17 ], [ false, %13 ]
  ret i1 %.0
}